; ModuleID = '23/969.c'
source_filename = "23/969.c"
target datalayout = "e-m:e-p270:32:32-p271:32:32-p272:64:64-i64:64-f80:128-n8:16:32:64-S128"
target triple = "x86_64-pc-linux-gnu"

@.str = private unnamed_addr constant [4 x i8] c"%s \00", align 1
@.str.1 = private unnamed_addr constant [3 x i8] c"%s\00", align 1

; Function Attrs: noinline nounwind uwtable
define dso_local void @main() #0 {
  %1 = alloca i32, align 4
  %2 = alloca i32, align 4
  %3 = alloca i32, align 4
  %4 = alloca i32, align 4
  %5 = alloca i32, align 4
  %6 = alloca i32, align 4
  %7 = alloca i32, align 4
  %8 = alloca i32, align 4
  %9 = alloca [50 x [15 x i8]], align 16
  %10 = alloca i8, align 1
  store i32 0, i32* %1, align 4
  store i32 0, i32* %2, align 4
  store i32 0, i32* %5, align 4
  store i32 0, i32* %6, align 4
  br label %11

11:                                               ; preds = %47, %0
  %12 = call i32 @getchar()
  %13 = trunc i32 %12 to i8
  store i8 %13, i8* %10, align 1
  %14 = sext i8 %13 to i32
  %15 = icmp ne i32 %14, 10
  br i1 %15, label %16, label %48

16:                                               ; preds = %11
  %17 = load i32, i32* %2, align 4
  %18 = icmp ne i32 %17, 0
  br i1 %18, label %19, label %32

19:                                               ; preds = %16
  %20 = load i8, i8* %10, align 1
  %21 = sext i8 %20 to i32
  %22 = icmp eq i32 %21, 32
  br i1 %22, label %23, label %32

23:                                               ; preds = %19
  %24 = load i32, i32* %1, align 4
  %25 = sext i32 %24 to i64
  %26 = getelementptr inbounds [50 x [15 x i8]], [50 x [15 x i8]]* %9, i64 0, i64 %25
  %27 = load i32, i32* %2, align 4
  %28 = sext i32 %27 to i64
  %29 = getelementptr inbounds [15 x i8], [15 x i8]* %26, i64 0, i64 %28
  store i8 0, i8* %29, align 1
  %30 = load i32, i32* %1, align 4
  %31 = add nsw i32 %30, 1
  store i32 %31, i32* %1, align 4
  store i32 0, i32* %2, align 4
  br label %47

32:                                               ; preds = %19, %16
  %33 = load i8, i8* %10, align 1
  %34 = sext i8 %33 to i32
  %35 = icmp ne i32 %34, 32
  br i1 %35, label %36, label %46

36:                                               ; preds = %32
  %37 = load i8, i8* %10, align 1
  %38 = load i32, i32* %1, align 4
  %39 = sext i32 %38 to i64
  %40 = getelementptr inbounds [50 x [15 x i8]], [50 x [15 x i8]]* %9, i64 0, i64 %39
  %41 = load i32, i32* %2, align 4
  %42 = sext i32 %41 to i64
  %43 = getelementptr inbounds [15 x i8], [15 x i8]* %40, i64 0, i64 %42
  store i8 %37, i8* %43, align 1
  %44 = load i32, i32* %2, align 4
  %45 = add nsw i32 %44, 1
  store i32 %45, i32* %2, align 4
  br label %46

46:                                               ; preds = %36, %32
  br label %47

47:                                               ; preds = %46, %23
  br label %11

48:                                               ; preds = %11
  %49 = load i32, i32* %1, align 4
  %50 = sext i32 %49 to i64
  %51 = getelementptr inbounds [50 x [15 x i8]], [50 x [15 x i8]]* %9, i64 0, i64 %50
  %52 = load i32, i32* %2, align 4
  %53 = sext i32 %52 to i64
  %54 = getelementptr inbounds [15 x i8], [15 x i8]* %51, i64 0, i64 %53
  store i8 0, i8* %54, align 1
  %55 = load i32, i32* %1, align 4
  store i32 %55, i32* %7, align 4
  br label %56

56:                                               ; preds = %65, %48
  %57 = load i32, i32* %7, align 4
  %58 = icmp sgt i32 %57, 0
  br i1 %58, label %59, label %68

59:                                               ; preds = %56
  %60 = load i32, i32* %7, align 4
  %61 = sext i32 %60 to i64
  %62 = getelementptr inbounds [50 x [15 x i8]], [50 x [15 x i8]]* %9, i64 0, i64 %61
  %63 = getelementptr inbounds [15 x i8], [15 x i8]* %62, i64 0, i64 0
  %64 = call i32 (i8*, ...) @printf(i8* getelementptr inbounds ([4 x i8], [4 x i8]* @.str, i64 0, i64 0), i8* %63)
  br label %65

65:                                               ; preds = %59
  %66 = load i32, i32* %7, align 4
  %67 = add nsw i32 %66, -1
  store i32 %67, i32* %7, align 4
  br label %56

68:                                               ; preds = %56
  %69 = getelementptr inbounds [50 x [15 x i8]], [50 x [15 x i8]]* %9, i64 0, i64 0
  %70 = getelementptr inbounds [15 x i8], [15 x i8]* %69, i64 0, i64 0
  %71 = call i32 (i8*, ...) @printf(i8* getelementptr inbounds ([3 x i8], [3 x i8]* @.str.1, i64 0, i64 0), i8* %70)
  ret void
}

declare dso_local i32 @getchar() #1

declare dso_local i32 @printf(i8*, ...) #1


!llvm.module.flags = !{!0}
!llvm.ident = !{!1}

!0 = !{i32 1, !"wchar_size", i32 4}
!1 = !{!"clang version 10.0.0-4ubuntu1 "}
